target datalayout = "e-m:e-p270:32:32-p271:32:32-p272:64:64-i64:64-i128:128-f80:128-n8:16:32:64-S128"
target triple = "x86_64-pc-linux-gnu"

%struct._scsi_task_data = type { i32, ptr, ptr }
%struct._itl_nexus_t = type { i8, ptr }

@cdb_control_fields = hidden constant [6 x ptr] [ptr @hf_scsi_control_vendor_specific, ptr @hf_scsi_control_reserved, ptr @hf_scsi_control_naca, ptr @hf_scsi_control_obs1, ptr @hf_scsi_control_obs2, ptr null], align 16
@hf_scsi_control = hidden global i32 0, align 4
@ett_scsi_control = hidden global i32 0, align 4
@hf_scsi_modesel_mode_data_length8 = internal global i32 0, align 4
@hf_scsi_modesel_medium_type = internal global i32 0, align 4
@hf_scsi_modesel_device_specific_parameter = internal global i32 0, align 4
@hf_scsi_modesel_block_descriptor_length8 = internal global i32 0, align 4
@hf_scsi_modesns_flags = internal global i32 0, align 4
@.str.45 = private unnamed_addr constant [9 x i8] c"DBD = %u\00", align 1
@hf_scsi_modesns_pc = internal global i32 0, align 4
@hf_scsi_alloclen = internal global i32 0, align 4
@hf_scsi_spc_pagecode = internal global i32 0, align 4
@hf_scsi_sbcpagecode = internal global i32 0, align 4
@hf_scsi_sscpagecode = internal global i32 0, align 4
@hf_scsi_mmcpagecode = internal global i32 0, align 4
@hf_scsi_smcpagecode = internal global i32 0, align 4

; Function Attrs: nounwind uwtable
define internal void @dissect_scsi_pagecode(ptr noundef %0, ptr noundef %1, ptr noundef %2, i32 noundef %3, ptr noundef %4) #0 {
  %6 = alloca ptr, align 8
  %7 = alloca ptr, align 8
  %8 = alloca ptr, align 8
  %9 = alloca i32, align 4
  %10 = alloca ptr, align 8
  %11 = alloca i8, align 1
  %12 = alloca i32, align 4
  store ptr %0, ptr %6, align 8
  store ptr %1, ptr %7, align 8
  store ptr %2, ptr %8, align 8
  store i32 %3, ptr %9, align 4
  store ptr %4, ptr %10, align 8
  %13 = load ptr, ptr %10, align 8
  %14 = icmp ne ptr %13, null
  br i1 %14, label %16, label %15

15:                                               ; preds = %5
  br label %54

16:                                               ; preds = %5
  %17 = load ptr, ptr %6, align 8
  %18 = load i32, ptr %9, align 4
  %19 = call zeroext i8 @tvb_get_guint8(ptr noundef %17, i32 noundef %18)
  store i8 %19, ptr %11, align 1
  %20 = load i8, ptr %11, align 1
  %21 = zext i8 %20 to i32
  %22 = and i32 %21, 63
  %23 = call ptr @try_val_to_str(i32 noundef %22, ptr noundef @scsi_spc_modepage_val)
  %24 = icmp eq ptr %23, null
  br i1 %24, label %25, label %44

25:                                               ; preds = %16
  %26 = load ptr, ptr %10, align 8
  %27 = getelementptr inbounds %struct._scsi_task_data, ptr %26, i32 0, i32 2
  %28 = load ptr, ptr %27, align 8
  %29 = getelementptr inbounds %struct._itl_nexus_t, ptr %28, i32 0, i32 0
  %30 = load i8, ptr %29, align 8
  %31 = zext i8 %30 to i32
  %32 = and i32 %31, 127
  switch i32 %32, label %41 [
    i32 0, label %33
    i32 1, label %35
    i32 8, label %37
    i32 5, label %39
  ]

33:                                               ; preds = %25
  %34 = load i32, ptr @hf_scsi_sbcpagecode, align 4
  store i32 %34, ptr %12, align 4
  br label %43

35:                                               ; preds = %25
  %36 = load i32, ptr @hf_scsi_sscpagecode, align 4
  store i32 %36, ptr %12, align 4
  br label %43

37:                                               ; preds = %25
  %38 = load i32, ptr @hf_scsi_smcpagecode, align 4
  store i32 %38, ptr %12, align 4
  br label %43

39:                                               ; preds = %25
  %40 = load i32, ptr @hf_scsi_mmcpagecode, align 4
  store i32 %40, ptr %12, align 4
  br label %43

41:                                               ; preds = %25
  %42 = load i32, ptr @hf_scsi_spc_pagecode, align 4
  store i32 %42, ptr %12, align 4
  br label %43

43:                                               ; preds = %41, %39, %37, %35, %33
  br label %46

44:                                               ; preds = %16
  %45 = load i32, ptr @hf_scsi_spc_pagecode, align 4
  store i32 %45, ptr %12, align 4
  br label %46

46:                                               ; preds = %44, %43
  %47 = load ptr, ptr %8, align 8
  %48 = load i32, ptr %12, align 4
  %49 = load ptr, ptr %6, align 8
  %50 = load i32, ptr %9, align 4
  %51 = load i8, ptr %11, align 1
  %52 = zext i8 %51 to i32
  %53 = call ptr @proto_tree_add_uint(ptr noundef %47, i32 noundef %48, ptr noundef %49, i32 noundef %50, i32 noundef 1, i32 noundef %52)
  br label %54

54:                                               ; preds = %46, %15
  ret void
}

; Function Attrs: nounwind uwtable
define hidden void @dissect_spc_modesense6(ptr noundef %0, ptr noundef %1, ptr noundef %2, i32 noundef %3, i32 noundef %4, i32 noundef %5, i32 noundef %6, ptr noundef %7) #0 {
  %9 = alloca ptr, align 8
  %10 = alloca ptr, align 8
  %11 = alloca ptr, align 8
  %12 = alloca i32, align 4
  %13 = alloca i32, align 4
  %14 = alloca i32, align 4
  %15 = alloca i32, align 4
  %16 = alloca ptr, align 8
  %17 = alloca i8, align 1
  %18 = alloca i32, align 4
  %19 = alloca i32, align 4
  %20 = alloca i32, align 4
  %21 = alloca ptr, align 8
  store ptr %0, ptr %9, align 8
  store ptr %1, ptr %10, align 8
  store ptr %2, ptr %11, align 8
  store i32 %3, ptr %12, align 4
  store i32 %4, ptr %13, align 4
  store i32 %5, ptr %14, align 4
  store i32 %6, ptr %15, align 4
  store ptr %7, ptr %16, align 8
  %22 = load ptr, ptr %11, align 8
  %23 = icmp ne ptr %22, null
  br i1 %23, label %25, label %24

24:                                               ; preds = %8
  br label %197

25:                                               ; preds = %8
  %26 = load i32, ptr %13, align 4
  %27 = icmp ne i32 %26, 0
  br i1 %27, label %28, label %70

28:                                               ; preds = %25
  %29 = load i32, ptr %14, align 4
  %30 = icmp ne i32 %29, 0
  br i1 %30, label %31, label %70

31:                                               ; preds = %28
  %32 = load ptr, ptr %9, align 8
  %33 = load i32, ptr %12, align 4
  %34 = call zeroext i8 @tvb_get_guint8(ptr noundef %32, i32 noundef %33)
  store i8 %34, ptr %17, align 1
  %35 = load ptr, ptr %11, align 8
  %36 = load i32, ptr @hf_scsi_modesns_flags, align 4
  %37 = load ptr, ptr %9, align 8
  %38 = load i32, ptr %12, align 4
  %39 = load i8, ptr %17, align 1
  %40 = zext i8 %39 to i32
  %41 = load i8, ptr %17, align 1
  %42 = zext i8 %41 to i32
  %43 = and i32 %42, 8
  %44 = call ptr (ptr, i32, ptr, i32, i32, i32, ptr, ...) @proto_tree_add_uint_format(ptr noundef %35, i32 noundef %36, ptr noundef %37, i32 noundef %38, i32 noundef 1, i32 noundef %40, ptr noundef @.str.45, i32 noundef %43)
  %45 = load ptr, ptr %11, align 8
  %46 = load i32, ptr @hf_scsi_modesns_pc, align 4
  %47 = load ptr, ptr %9, align 8
  %48 = load i32, ptr %12, align 4
  %49 = add i32 %48, 1
  %50 = call ptr @proto_tree_add_item(ptr noundef %45, i32 noundef %46, ptr noundef %47, i32 noundef %49, i32 noundef 1, i32 noundef 0)
  %51 = load ptr, ptr %9, align 8
  %52 = load ptr, ptr %10, align 8
  %53 = load ptr, ptr %11, align 8
  %54 = load i32, ptr %12, align 4
  %55 = add i32 %54, 1
  %56 = load ptr, ptr %16, align 8
  call void @dissect_scsi_pagecode(ptr noundef %51, ptr noundef %52, ptr noundef %53, i32 noundef %55, ptr noundef %56)
  %57 = load ptr, ptr %11, align 8
  %58 = load i32, ptr @hf_scsi_alloclen, align 4
  %59 = load ptr, ptr %9, align 8
  %60 = load i32, ptr %12, align 4
  %61 = add i32 %60, 3
  %62 = call ptr @proto_tree_add_item(ptr noundef %57, i32 noundef %58, ptr noundef %59, i32 noundef %61, i32 noundef 1, i32 noundef 0)
  %63 = load ptr, ptr %11, align 8
  %64 = load ptr, ptr %9, align 8
  %65 = load i32, ptr %12, align 4
  %66 = add i32 %65, 4
  %67 = load i32, ptr @hf_scsi_control, align 4
  %68 = load i32, ptr @ett_scsi_control, align 4
  %69 = call ptr @proto_tree_add_bitmask(ptr noundef %63, ptr noundef %64, i32 noundef %66, i32 noundef %67, i32 noundef %68, ptr noundef @cdb_control_fields, i32 noundef 0)
  br label %197

70:                                               ; preds = %28, %25
  %71 = load ptr, ptr %9, align 8
  %72 = load i32, ptr %12, align 4
  %73 = call zeroext i8 @tvb_get_guint8(ptr noundef %71, i32 noundef %72)
  %74 = zext i8 %73 to i32
  store i32 %74, ptr %19, align 4
  %75 = load ptr, ptr %11, align 8
  %76 = load i32, ptr @hf_scsi_modesel_mode_data_length8, align 4
  %77 = load ptr, ptr %9, align 8
  %78 = load i32, ptr %12, align 4
  %79 = call ptr @proto_tree_add_item(ptr noundef %75, i32 noundef %76, ptr noundef %77, i32 noundef %78, i32 noundef 1, i32 noundef 0)
  %80 = load i32, ptr %12, align 4
  %81 = add i32 %80, 1
  store i32 %81, ptr %12, align 4
  %82 = load i32, ptr %15, align 4
  %83 = icmp ne i32 %82, 0
  br i1 %83, label %84, label %90

84:                                               ; preds = %70
  %85 = load i32, ptr %19, align 4
  %86 = load i32, ptr %15, align 4
  %87 = icmp sgt i32 %85, %86
  br i1 %87, label %88, label %90

88:                                               ; preds = %84
  %89 = load i32, ptr %15, align 4
  store i32 %89, ptr %19, align 4
  br label %90

90:                                               ; preds = %88, %84, %70
  %91 = load i32, ptr %19, align 4
  %92 = icmp slt i32 %91, 1
  br i1 %92, label %93, label %94

93:                                               ; preds = %90
  br label %197

94:                                               ; preds = %90
  %95 = load ptr, ptr %11, align 8
  %96 = load i32, ptr @hf_scsi_modesel_medium_type, align 4
  %97 = load ptr, ptr %9, align 8
  %98 = load i32, ptr %12, align 4
  %99 = call ptr @proto_tree_add_item(ptr noundef %95, i32 noundef %96, ptr noundef %97, i32 noundef %98, i32 noundef 1, i32 noundef 0)
  %100 = load i32, ptr %12, align 4
  %101 = add i32 %100, 1
  store i32 %101, ptr %12, align 4
  %102 = load i32, ptr %19, align 4
  %103 = sub i32 %102, 1
  store i32 %103, ptr %19, align 4
  %104 = load i32, ptr %19, align 4
  %105 = icmp slt i32 %104, 1
  br i1 %105, label %106, label %107

106:                                              ; preds = %94
  br label %197

107:                                              ; preds = %94
  %108 = load ptr, ptr %11, align 8
  %109 = load i32, ptr @hf_scsi_modesel_device_specific_parameter, align 4
  %110 = load ptr, ptr %9, align 8
  %111 = load i32, ptr %12, align 4
  %112 = call ptr @proto_tree_add_item(ptr noundef %108, i32 noundef %109, ptr noundef %110, i32 noundef %111, i32 noundef 1, i32 noundef 0)
  %113 = load i32, ptr %12, align 4
  %114 = add i32 %113, 1
  store i32 %114, ptr %12, align 4
  %115 = load i32, ptr %19, align 4
  %116 = sub i32 %115, 1
  store i32 %116, ptr %19, align 4
  %117 = load i32, ptr %19, align 4
  %118 = icmp slt i32 %117, 1
  br i1 %118, label %119, label %120

119:                                              ; preds = %107
  br label %197

120:                                              ; preds = %107
  %121 = load ptr, ptr %9, align 8
  %122 = load i32, ptr %12, align 4
  %123 = call zeroext i8 @tvb_get_guint8(ptr noundef %121, i32 noundef %122)
  %124 = zext i8 %123 to i32
  store i32 %124, ptr %20, align 4
  %125 = load ptr, ptr %11, align 8
  %126 = load i32, ptr @hf_scsi_modesel_block_descriptor_length8, align 4
  %127 = load ptr, ptr %9, align 8
  %128 = load i32, ptr %12, align 4
  %129 = call ptr @proto_tree_add_item(ptr noundef %125, i32 noundef %126, ptr noundef %127, i32 noundef %128, i32 noundef 1, i32 noundef 0)
  %130 = load i32, ptr %12, align 4
  %131 = add i32 %130, 1
  store i32 %131, ptr %12, align 4
  %132 = load i32, ptr %19, align 4
  %133 = sub i32 %132, 1
  store i32 %133, ptr %19, align 4
  %134 = load ptr, ptr %9, align 8
  %135 = load i32, ptr %12, align 4
  %136 = call i32 @tvb_reported_length_remaining(ptr noundef %134, i32 noundef %135)
  %137 = icmp sgt i32 %136, 0
  br i1 %137, label %138, label %160

138:                                              ; preds = %120
  %139 = load ptr, ptr %9, align 8
  %140 = load i32, ptr %12, align 4
  %141 = load ptr, ptr %9, align 8
  %142 = load i32, ptr %12, align 4
  %143 = call i32 @tvb_reported_length_remaining(ptr noundef %141, i32 noundef %142)
  %144 = load i32, ptr %20, align 4
  %145 = icmp slt i32 %143, %144
  br i1 %145, label %146, label %150

146:                                              ; preds = %138
  %147 = load ptr, ptr %9, align 8
  %148 = load i32, ptr %12, align 4
  %149 = call i32 @tvb_reported_length_remaining(ptr noundef %147, i32 noundef %148)
  br label %152

150:                                              ; preds = %138
  %151 = load i32, ptr %20, align 4
  br label %152

152:                                              ; preds = %150, %146
  %153 = phi i32 [ %149, %146 ], [ %151, %150 ]
  %154 = load i32, ptr %20, align 4
  %155 = call ptr @tvb_new_subset_length_caplen(ptr noundef %139, i32 noundef %140, i32 noundef %153, i32 noundef %154)
  store ptr %155, ptr %21, align 8
  %156 = load ptr, ptr %21, align 8
  %157 = load ptr, ptr %10, align 8
  %158 = load ptr, ptr %11, align 8
  %159 = load ptr, ptr %16, align 8
  call void @dissect_scsi_blockdescs(ptr noundef %156, ptr noundef %157, ptr noundef %158, ptr noundef %159, i32 noundef 0)
  br label %160

160:                                              ; preds = %152, %120
  %161 = load i32, ptr %20, align 4
  %162 = load i32, ptr %12, align 4
  %163 = add i32 %162, %161
  store i32 %163, ptr %12, align 4
  %164 = load i32, ptr %20, align 4
  %165 = load i32, ptr %19, align 4
  %166 = sub i32 %165, %164
  store i32 %166, ptr %19, align 4
  br label %167

167:                                              ; preds = %177, %160
  %168 = load i32, ptr %19, align 4
  %169 = icmp sgt i32 %168, 0
  br i1 %169, label %170, label %175

170:                                              ; preds = %167
  %171 = load ptr, ptr %9, align 8
  %172 = load i32, ptr %12, align 4
  %173 = call i32 @tvb_bytes_exist(ptr noundef %171, i32 noundef %172, i32 noundef 2)
  %174 = icmp ne i32 %173, 0
  br label %175

175:                                              ; preds = %170, %167
  %176 = phi i1 [ false, %167 ], [ %174, %170 ]
  br i1 %176, label %177, label %196

177:                                              ; preds = %175
  %178 = load ptr, ptr %9, align 8
  %179 = load ptr, ptr %10, align 8
  %180 = load ptr, ptr %11, align 8
  %181 = load i32, ptr %12, align 4
  %182 = load ptr, ptr %16, align 8
  %183 = getelementptr inbounds %struct._scsi_task_data, ptr %182, i32 0, i32 2
  %184 = load ptr, ptr %183, align 8
  %185 = getelementptr inbounds %struct._itl_nexus_t, ptr %184, i32 0, i32 0
  %186 = load i8, ptr %185, align 8
  %187 = zext i8 %186 to i32
  %188 = and i32 %187, 127
  %189 = call i32 @dissect_scsi_modepage(ptr noundef %178, ptr noundef %179, ptr noundef %180, i32 noundef %181, i32 noundef %188)
  store i32 %189, ptr %18, align 4
  %190 = load i32, ptr %18, align 4
  %191 = load i32, ptr %12, align 4
  %192 = add i32 %191, %190
  store i32 %192, ptr %12, align 4
  %193 = load i32, ptr %18, align 4
  %194 = load i32, ptr %19, align 4
  %195 = sub i32 %194, %193
  store i32 %195, ptr %19, align 4
  br label %167, !llvm.loop !17

196:                                              ; preds = %175
  br label %197

197:                                              ; preds = %196, %119, %106, %93, %31, %24
  ret void
}