; Function Attrs: nounwind uwtable
define hidden void @dissect_spc_modesense6(ptr noundef %0, ptr noundef %1, ptr noundef %2, i32 noundef %3, i32 noundef %4, i32 noundef %5, i32 noundef %6, ptr noundef %7) #0 {
  %.not = icmp eq ptr %2, null
  br i1 %.not, label %.critedge, label %9

9:                                                ; preds = %8
  %10 = icmp ne i32 %4, 0
  %11 = icmp ne i32 %5, 0
  %or.cond = and i1 %10, %11
  %12 = tail call zeroext i8 @tvb_get_guint8(ptr noundef %0, i32 noundef %3) #10
  br i1 %or.cond, label %13, label %43

13:                                               ; preds = %9
  %14 = load i32, ptr @hf_scsi_modesns_flags, align 4
  %15 = zext i8 %12 to i32
  %16 = and i32 %15, 8
  %17 = tail call ptr (ptr, i32, ptr, i32, i32, i32, ptr, ...) @proto_tree_add_uint_format(ptr noundef nonnull %2, i32 noundef %14, ptr noundef %0, i32 noundef %3, i32 noundef 1, i32 noundef %15, ptr noundef nonnull @.str.45, i32 noundef %16) #10
  %18 = load i32, ptr @hf_scsi_modesns_pc, align 4
  %19 = add i32 %3, 1
  %20 = tail call ptr @proto_tree_add_item(ptr noundef nonnull %2, i32 noundef %18, ptr noundef %0, i32 noundef %19, i32 noundef 1, i32 noundef 0) #10
  %.not.i = icmp eq ptr %7, null
  br i1 %.not.i, label %dissect_scsi_pagecode.exit, label %21

21:                                               ; preds = %13
  %22 = tail call zeroext i8 @tvb_get_guint8(ptr noundef %0, i32 noundef %19) #10
  %23 = zext i8 %22 to i32
  %24 = and i32 %23, 63
  %25 = tail call ptr @try_val_to_str(i32 noundef %24, ptr noundef nonnull @scsi_spc_modepage_val) #10
  %26 = icmp eq ptr %25, null
  br i1 %26, label %27, label %34

27:                                               ; preds = %21
  %28 = getelementptr inbounds nuw i8, ptr %7, i64 16
  %29 = load ptr, ptr %28, align 8
  %30 = load i8, ptr %29, align 8
  %31 = and i8 %30, 127
  %32 = icmp samesign ult i8 %31, 9
  br i1 %32, label %switch.lookup, label %34

switch.lookup:                                    ; preds = %27
  %33 = zext nneg i8 %31 to i64
  %switch.gep = getelementptr inbounds nuw [9 x ptr], ptr @switch.table.dissect_spc_modesense10, i64 0, i64 %33
  %switch.load = load ptr, ptr %switch.gep, align 8
  br label %34

34:                                               ; preds = %27, %switch.lookup, %21
  %.0.in.i = phi ptr [ @hf_scsi_spc_pagecode, %21 ], [ %switch.load, %switch.lookup ], [ @hf_scsi_spc_pagecode, %27 ]
  %.0.i = load i32, ptr %.0.in.i, align 4
  %35 = tail call ptr @proto_tree_add_uint(ptr noundef nonnull %2, i32 noundef %.0.i, ptr noundef %0, i32 noundef %19, i32 noundef 1, i32 noundef %23) #10
  br label %dissect_scsi_pagecode.exit

dissect_scsi_pagecode.exit:                       ; preds = %13, %34
  %36 = load i32, ptr @hf_scsi_alloclen, align 4
  %37 = add i32 %3, 3
  %38 = tail call ptr @proto_tree_add_item(ptr noundef nonnull %2, i32 noundef %36, ptr noundef %0, i32 noundef %37, i32 noundef 1, i32 noundef 0) #10
  %39 = add i32 %3, 4
  %40 = load i32, ptr @hf_scsi_control, align 4
  %41 = load i32, ptr @ett_scsi_control, align 4
  %42 = tail call ptr @proto_tree_add_bitmask(ptr noundef nonnull %2, ptr noundef %0, i32 noundef %39, i32 noundef %40, i32 noundef %41, ptr noundef nonnull @cdb_control_fields, i32 noundef 0) #10
  br label %.critedge

43:                                               ; preds = %9
  %44 = zext i8 %12 to i32
  %45 = load i32, ptr @hf_scsi_modesel_mode_data_length8, align 4
  %46 = tail call ptr @proto_tree_add_item(ptr noundef nonnull %2, i32 noundef %45, ptr noundef %0, i32 noundef %3, i32 noundef 1, i32 noundef 0) #10
  %.not92.not = icmp eq i32 %6, 0
  %47 = tail call i32 @llvm.smin.i32(i32 %6, i32 %44)
  %.085 = select i1 %.not92.not, i32 %44, i32 %47
  %48 = icmp slt i32 %.085, 1
  br i1 %48, label %.critedge, label %49

49:                                               ; preds = %43
  %50 = add i32 %3, 1
  %51 = load i32, ptr @hf_scsi_modesel_medium_type, align 4
  %52 = tail call ptr @proto_tree_add_item(ptr noundef nonnull %2, i32 noundef %51, ptr noundef %0, i32 noundef %50, i32 noundef 1, i32 noundef 0) #10
  %53 = icmp eq i32 %.085, 1
  br i1 %53, label %.critedge, label %54

54:                                               ; preds = %49
  %55 = add i32 %3, 2
  %56 = load i32, ptr @hf_scsi_modesel_device_specific_parameter, align 4
  %57 = tail call ptr @proto_tree_add_item(ptr noundef nonnull %2, i32 noundef %56, ptr noundef %0, i32 noundef %55, i32 noundef 1, i32 noundef 0) #10
  %58 = icmp samesign ult i32 %.085, 3
  br i1 %58, label %.critedge, label %59

59:                                               ; preds = %54
  %60 = add i32 %3, 3
  %61 = tail call zeroext i8 @tvb_get_guint8(ptr noundef %0, i32 noundef %60) #10
  %62 = zext i8 %61 to i32
  %63 = load i32, ptr @hf_scsi_modesel_block_descriptor_length8, align 4
  %64 = tail call ptr @proto_tree_add_item(ptr noundef nonnull %2, i32 noundef %63, ptr noundef %0, i32 noundef %60, i32 noundef 1, i32 noundef 0) #10
  %65 = add i32 %3, 4
  %66 = add nsw i32 %.085, -3
  %67 = tail call i32 @tvb_reported_length_remaining(ptr noundef %0, i32 noundef %65) #10
  %68 = icmp sgt i32 %67, 0
  br i1 %68, label %69, label %77

69:                                               ; preds = %59
  %70 = tail call i32 @tvb_reported_length_remaining(ptr noundef %0, i32 noundef %65) #10
  %71 = icmp slt i32 %70, %62
  br i1 %71, label %72, label %74

72:                                               ; preds = %69
  %73 = tail call i32 @tvb_reported_length_remaining(ptr noundef %0, i32 noundef %65) #10
  br label %74

74:                                               ; preds = %69, %72
  %75 = phi i32 [ %73, %72 ], [ %62, %69 ]
  %76 = tail call ptr @tvb_new_subset_length_caplen(ptr noundef %0, i32 noundef %65, i32 noundef %75, i32 noundef %62) #10
  tail call fastcc void @dissect_scsi_blockdescs(ptr noundef %76, ptr noundef %2, ptr noundef %7, i32 noundef 0)
  br label %77

77:                                               ; preds = %74, %59
  %78 = sub nsw i32 %66, %62
  %79 = icmp sgt i32 %78, 0
  br i1 %79, label %.lr.ph, label %.critedge

.lr.ph:                                           ; preds = %77
  %80 = add i32 %65, %62
  %81 = getelementptr inbounds nuw i8, ptr %7, i64 16
  br label %82

82:                                               ; preds = %.lr.ph, %84
  %.096 = phi i32 [ %80, %.lr.ph ], [ %90, %84 ]
  %.195 = phi i32 [ %78, %.lr.ph ], [ %91, %84 ]
  %83 = tail call i32 @tvb_bytes_exist(ptr noundef %0, i32 noundef %.096, i32 noundef 2) #10
  %.not93 = icmp eq i32 %83, 0
  br i1 %.not93, label %.critedge, label %84

84:                                               ; preds = %82
  %85 = load ptr, ptr %81, align 8
  %86 = load i8, ptr %85, align 8
  %87 = and i8 %86, 127
  %88 = zext nneg i8 %87 to i32
  %89 = tail call fastcc i32 @dissect_scsi_modepage(ptr noundef %0, ptr noundef %1, ptr noundef %2, i32 noundef %.096, i32 noundef %88)
  %90 = add i32 %89, %.096
  %91 = sub nsw i32 %.195, %89
  %92 = icmp sgt i32 %91, 0
  br i1 %92, label %82, label %.critedge, !llvm.loop !16

.critedge:                                        ; preds = %84, %82, %77, %54, %49, %43, %8, %dissect_scsi_pagecode.exit
  ret void
}